Certificate:
    Data:
        Version: 3 (0x2)
        Serial Number:
            12:8c:b9:0c:03:44:59:6b:01:ab:68:77:0e:02:9f:17:b9:b8:69:b9
        Signature Algorithm: sha256WithRSAEncryption
        Issuer: CN=osbuild.org
        Validity
            Not Before: Oct 21 11:16:24 2022 GMT
            Not After : Sep 27 11:16:24 2122 GMT
        Subject: CN=client.osbuild.org/emailAddress=osbuild@example.com
        Subject Public Key Info:
            Public Key Algorithm: rsaEncryption
                RSA Public-Key: (2048 bit)
                Modulus:
                    00:d8:9b:ae:30:a2:5b:7c:e2:08:64:9b:25:e2:61:
                    fd:69:bb:25:7d:c2:ee:ca:c2:88:e0:96:5d:e7:d0:
                    20:f3:a8:cd:8b:31:07:21:01:de:a2:92:c1:b0:f3:
                    77:64:82:b3:e1:d0:2d:f4:ca:db:ea:d3:50:a2:f5:
                    1e:e4:ea:49:ea:d3:68:46:09:3d:16:0a:20:54:64:
                    20:35:2d:89:8d:55:48:75:63:0b:4a:1d:dd:8a:02:
                    68:3d:8c:81:fd:60:be:cd:ac:e5:91:da:fd:bf:36:
                    77:95:d8:4f:83:14:c2:c6:3f:9e:40:7d:2a:bd:4c:
                    a6:0d:75:41:30:5d:11:14:ad:11:56:79:58:c3:7b:
                    94:b2:db:d1:c9:e3:84:0d:d5:7d:da:92:98:6f:ce:
                    db:37:2c:da:3a:3e:c9:35:38:67:8a:3b:36:d0:73:
                    50:47:75:6e:53:94:55:6b:e4:c1:a4:bd:22:4d:b2:
                    bf:57:72:aa:a0:73:7e:b6:77:07:85:72:c0:1a:5f:
                    c1:cb:d9:57:38:54:0c:ed:73:ce:ba:83:5b:00:c4:
                    09:62:5e:12:89:0f:a9:05:4e:1d:98:2e:c4:14:63:
                    74:5e:16:0b:5f:ac:83:c0:e0:5b:0e:93:35:80:b7:
                    8e:85:da:cd:fe:3f:83:c5:35:38:34:e0:de:3d:3e:
                    2f:a7
                Exponent: 65537 (0x10001)
        X509v3 extensions:
            X509v3 Basic Constraints: 
                CA:FALSE
            X509v3 Subject Key Identifier: 
                8F:ED:C1:36:46:5D:80:B7:A9:3A:B9:A5:65:FD:9C:F1:07:F9:3B:A0
            X509v3 Authority Key Identifier: 
                keyid:3A:04:ED:2B:E8:99:81:4E:30:D4:F4:46:68:E4:F1:A0:78:24:4A:12

            X509v3 Key Usage: critical
                Digital Signature, Non Repudiation, Key Encipherment
            X509v3 Extended Key Usage: 
                TLS Web Client Authentication
            X509v3 Subject Alternative Name: 
                DNS:client.osbuild.org, IP Address:127.0.0.1
    Signature Algorithm: sha256WithRSAEncryption
         8d:4f:f2:ab:1a:08:8f:04:f8:ac:b5:7d:0d:14:7a:38:0f:d6:
         63:72:b0:df:7f:22:d4:a9:bd:5a:f3:53:f2:d6:e4:f2:29:01:
         fc:72:7e:df:e7:2a:be:9c:d5:90:2f:9a:60:d3:63:64:49:81:
         58:06:f5:6b:2f:92:80:44:28:2b:e2:95:e3:a0:8e:eb:ef:5c:
         83:e9:d0:02:35:79:8d:21:a5:8b:32:d0:e8:88:7f:c5:72:8c:
         49:5f:6d:d9:20:dc:de:9f:e7:58:bb:bb:7b:10:1a:f9:00:fa:
         8d:c5:ec:05:7d:1b:c5:ac:f5:4a:6b:d3:b7:19:99:bc:a0:dd:
         d7:75:4a:06:69:9d:d5:87:9a:f6:50:30:b1:d3:96:4b:a8:67:
         19:55:1d:ab:c2:77:ff:23:85:a4:2d:40:de:cd:d6:50:8c:ee:
         de:d8:92:77:4a:6a:06:ee:92:52:04:1e:e6:3f:ff:2d:d0:44:
         75:e8:e5:f1:a2:c5:f8:6b:28:92:67:f6:25:52:52:ae:0a:65:
         a9:3f:2a:1e:70:a8:45:d5:5d:14:40:50:05:0d:af:91:8a:68:
         0d:2d:27:ed:32:2b:f4:9e:ac:35:00:ec:f4:07:e1:80:92:59:
         a1:aa:3c:60:11:e1:b8:b5:df:14:b5:20:94:9b:cd:2d:a6:ab:
         74:f5:39:17
-----BEGIN CERTIFICATE-----
MIIDgDCCAmigAwIBAgIUEoy5DANEWWsBq2h3DgKfF7m4abkwDQYJKoZIhvcNAQEL
BQAwFjEUMBIGA1UEAwwLb3NidWlsZC5vcmcwIBcNMjIxMDIxMTExNjI0WhgPMjEy
MjA5MjcxMTE2MjRaMEExGzAZBgNVBAMMEmNsaWVudC5vc2J1aWxkLm9yZzEiMCAG
CSqGSIb3DQEJARYTb3NidWlsZEBleGFtcGxlLmNvbTCCASIwDQYJKoZIhvcNAQEB
BQADggEPADCCAQoCggEBANibrjCiW3ziCGSbJeJh/Wm7JX3C7srCiOCWXefQIPOo
zYsxByEB3qKSwbDzd2SCs+HQLfTK2+rTUKL1HuTqSerTaEYJPRYKIFRkIDUtiY1V
SHVjC0od3YoCaD2Mgf1gvs2s5ZHa/b82d5XYT4MUwsY/nkB9Kr1Mpg11QTBdERSt
EVZ5WMN7lLLb0cnjhA3VfdqSmG/O2zcs2jo+yTU4Z4o7NtBzUEd1blOUVWvkwaS9
Ik2yv1dyqqBzfrZ3B4VywBpfwcvZVzhUDO1zzrqDWwDECWJeEokPqQVOHZguxBRj
dF4WC1+sg8DgWw6TNYC3joXazf4/g8U1ODTg3j0+L6cCAwEAAaOBmDCBlTAJBgNV
HRMEAjAAMB0GA1UdDgQWBBSP7cE2Rl2At6k6uaVl/ZzxB/k7oDAfBgNVHSMEGDAW
gBQ6BO0r6JmBTjDU9EZo5PGgeCRKEjAOBgNVHQ8BAf8EBAMCBeAwEwYDVR0lBAww
CgYIKwYBBQUHAwIwIwYDVR0RBBwwGoISY2xpZW50Lm9zYnVpbGQub3JnhwR/AAAB
MA0GCSqGSIb3DQEBCwUAA4IBAQCNT/KrGgiPBPistX0NFHo4D9ZjcrDffyLUqb1a
81Py1uTyKQH8cn7f5yq+nNWQL5pg02NkSYFYBvVrL5KARCgr4pXjoI7r71yD6dAC
NXmNIaWLMtDoiH/FcoxJX23ZINzen+dYu7t7EBr5APqNxewFfRvFrPVKa9O3GZm8
oN3XdUoGaZ3Vh5r2UDCx05ZLqGcZVR2rwnf/I4WkLUDezdZQjO7e2JJ3SmoG7pJS
BB7mP/8t0ER16OXxosX4ayiSZ/YlUlKuCmWpPyoecKhF1V0UQFAFDa+RimgNLSft
Miv0nqw1AOz0B+GAklmhqjxgEeG4td8UtSCUm80tpqt09TkX
-----END CERTIFICATE-----
