Certificate:
    Data:
        Version: 3 (0x2)
        Serial Number:
            03:98:ce:0d:99:59:1a:59:c5:51:23:64:c1:86:80:47:82:2a:2f:0e
        Signature Algorithm: sha256WithRSAEncryption
        Issuer: CN=osbuild.org
        Validity
            Not Before: Oct 21 11:16:24 2022 GMT
            Not After : Sep 27 11:16:24 2122 GMT
        Subject: CN=localhost/emailAddress=osbuild@example.com
        Subject Public Key Info:
            Public Key Algorithm: rsaEncryption
                RSA Public-Key: (2048 bit)
                Modulus:
                    00:bb:8a:35:4b:56:c5:25:3d:85:ac:56:77:f0:a2:
                    f7:75:1a:4f:2e:10:d2:a5:15:07:83:9d:96:61:05:
                    4d:09:fe:0f:bc:6f:3d:be:d9:8b:90:c2:9c:05:9f:
                    92:4d:50:d2:63:da:e5:5e:95:e0:e4:96:db:d0:78:
                    d8:bb:e9:62:7d:80:6d:b5:42:be:24:8e:f3:15:f7:
                    ce:de:eb:1a:af:ee:5c:d7:e4:94:cf:f7:e2:e6:fc:
                    65:a9:e0:d6:8b:f5:71:6a:af:dd:24:c5:0f:4a:a2:
                    09:54:52:fe:05:ac:da:14:40:09:4a:f8:6a:fd:84:
                    07:46:c2:5d:b1:ca:ee:8e:62:33:2b:a5:0c:9b:3a:
                    34:aa:70:cc:77:1c:e6:0b:e8:7c:60:6f:a2:52:ac:
                    15:5f:00:a5:6f:c2:22:8c:bf:59:f3:ee:89:4a:c9:
                    c3:a6:d3:c3:53:2e:eb:6d:c7:ee:fa:1a:83:06:17:
                    00:08:dc:a5:2c:69:1c:4f:26:15:57:72:a1:42:97:
                    41:98:9c:6c:db:43:0c:55:e4:41:86:bb:25:0e:37:
                    04:17:04:03:fa:45:66:80:8a:e2:9f:66:8d:00:66:
                    ad:e1:a3:d0:63:0f:6d:a9:01:70:ab:5d:74:7f:73:
                    62:17:6d:4d:b3:52:b2:78:34:b7:61:23:7e:fa:85:
                    e6:5f
                Exponent: 65537 (0x10001)
        X509v3 extensions:
            X509v3 Basic Constraints: critical
                CA:FALSE
            X509v3 Subject Key Identifier: 
                C0:2F:23:10:5D:C6:BC:97:76:50:71:FC:93:C1:47:59:02:FD:BC:23
            X509v3 Authority Key Identifier: 
                keyid:3A:04:ED:2B:E8:99:81:4E:30:D4:F4:46:68:E4:F1:A0:78:24:4A:12
                DirName:/CN=osbuild.org
                serial:43:6B:7C:15:23:01:44:79:BD:E3:27:70:50:BC:90:AF:19:CA:5A:2F

            X509v3 Key Usage: critical
                Digital Signature, Key Encipherment
            X509v3 Extended Key Usage: 
                TLS Web Server Authentication
            X509v3 Subject Alternative Name: 
                DNS:localhost, DNS:composer, IP Address:127.0.0.1
    Signature Algorithm: sha256WithRSAEncryption
         72:f9:19:12:a1:d3:f6:62:66:5b:42:cf:da:c6:62:93:c9:29:
         28:0e:4d:f0:c3:00:f2:c1:a5:10:7b:17:3b:21:2c:3c:96:6f:
         b3:0b:e7:fb:69:56:21:fe:dd:ed:25:64:97:0a:5c:8a:ec:c0:
         dc:49:b4:9f:14:19:cc:0b:dc:20:a1:09:25:3c:4d:65:8d:56:
         c9:16:c0:e5:2c:8b:3f:5d:27:4d:81:0e:1f:77:5e:e6:7d:d7:
         e7:96:4c:27:b6:25:e7:42:d1:70:85:7f:08:4c:46:1e:59:21:
         94:6a:f1:dc:2a:38:9e:14:1e:99:07:e3:9e:cc:81:37:55:62:
         fb:98:33:4e:2c:fa:eb:9c:9c:3e:76:64:7d:73:62:9f:d0:08:
         5d:ee:34:f3:8d:53:28:6c:20:f8:8c:3b:c8:32:d3:82:2f:3f:
         a1:da:f4:ae:48:96:6b:2c:4c:60:b6:d5:19:d1:63:3d:9b:bd:
         c2:89:fa:c3:0c:57:80:51:ea:79:1c:2b:ad:29:a5:01:93:6a:
         4e:36:28:60:e6:f3:fd:09:a8:4e:8a:5c:51:31:30:f3:d1:c1:
         2d:e0:7c:23:25:91:6f:bb:a6:f8:5a:01:18:34:51:ed:f9:ab:
         c8:ab:6b:29:0e:19:44:25:09:60:e0:7c:a0:0c:45:37:7b:2d:
         62:1d:b6:61
-----BEGIN CERTIFICATE-----
MIIDrTCCApWgAwIBAgIUA5jODZlZGlnFUSNkwYaAR4IqLw4wDQYJKoZIhvcNAQEL
BQAwFjEUMBIGA1UEAwwLb3NidWlsZC5vcmcwIBcNMjIxMDIxMTExNjI0WhgPMjEy
MjA5MjcxMTE2MjRaMDgxEjAQBgNVBAMMCWxvY2FsaG9zdDEiMCAGCSqGSIb3DQEJ
ARYTb3NidWlsZEBleGFtcGxlLmNvbTCCASIwDQYJKoZIhvcNAQEBBQADggEPADCC
AQoCggEBALuKNUtWxSU9haxWd/Ci93UaTy4Q0qUVB4OdlmEFTQn+D7xvPb7Zi5DC
nAWfkk1Q0mPa5V6V4OSW29B42LvpYn2AbbVCviSO8xX3zt7rGq/uXNfklM/34ub8
Zang1ov1cWqv3STFD0qiCVRS/gWs2hRACUr4av2EB0bCXbHK7o5iMyulDJs6NKpw
zHcc5gvofGBvolKsFV8ApW/CIoy/WfPuiUrJw6bTw1Mu623H7voagwYXAAjcpSxp
HE8mFVdyoUKXQZicbNtDDFXkQYa7JQ43BBcEA/pFZoCK4p9mjQBmreGj0GMPbakB
cKtddH9zYhdtTbNSsng0t2EjfvqF5l8CAwEAAaOBzjCByzAMBgNVHRMBAf8EAjAA
MB0GA1UdDgQWBBTALyMQXca8l3ZQcfyTwUdZAv28IzBRBgNVHSMESjBIgBQ6BO0r
6JmBTjDU9EZo5PGgeCRKEqEapBgwFjEUMBIGA1UEAwwLb3NidWlsZC5vcmeCFENr
fBUjAUR5veMncFC8kK8ZylovMA4GA1UdDwEB/wQEAwIFoDATBgNVHSUEDDAKBggr
BgEFBQcDATAkBgNVHREEHTAbgglsb2NhbGhvc3SCCGNvbXBvc2VyhwR/AAABMA0G
CSqGSIb3DQEBCwUAA4IBAQBy+RkSodP2YmZbQs/axmKTySkoDk3wwwDywaUQexc7
ISw8lm+zC+f7aVYh/t3tJWSXClyK7MDcSbSfFBnMC9wgoQklPE1ljVbJFsDlLIs/
XSdNgQ4fd17mfdfnlkwntiXnQtFwhX8ITEYeWSGUavHcKjieFB6ZB+OezIE3VWL7
mDNOLPrrnJw+dmR9c2Kf0Ahd7jTzjVMobCD4jDvIMtOCLz+h2vSuSJZrLExgttUZ
0WM9m73CifrDDFeAUep5HCutKaUBk2pONihg5vP9CahOilxRMTDz0cEt4HwjJZFv
u6b4WgEYNFHt+avIq2spDhlEJQlg4HygDEU3ey1iHbZh
-----END CERTIFICATE-----
